target datalayout = "e-m:e-p270:32:32-p271:32:32-p272:64:64-i64:64-i128:128-f80:128-n8:16:32:64-S128"
target triple = "x86_64-pc-linux-gnu"

%struct.AVFilterContext = type { ptr, ptr, ptr, ptr, ptr, i32, ptr, ptr, i32, ptr, ptr, i32, i32, ptr, ptr, ptr, ptr, i32, ptr, i32, i32 }
%struct.ShowWavesContext = type { ptr, i32, i32, %struct.AVRational, ptr, i32, ptr, ptr, i32, i32, ptr, %struct.AVRational, %struct.AVRational, %struct.AVRational, i32, i32, i32, i32, i32, i32, ptr, ptr, ptr, i32, ptr, ptr, i64, ptr }
%struct.AVRational = type { i32, i32 }
%struct.frame_node = type { ptr, ptr }
%struct.AVFilterFormatsConfig = type { ptr, ptr, ptr, ptr, ptr }
%struct.AVFilterLink = type { ptr, ptr, ptr, ptr, i32, i32, i32, i32, %struct.AVRational, i32, i32, i32, %struct.AVChannelLayout, %struct.AVRational, ptr, i32, %struct.AVFilterFormatsConfig, %struct.AVFilterFormatsConfig }
%struct.AVChannelLayout = type { i32, i32, %union.anon.1, ptr }
%union.anon.1 = type { i64 }
%struct.AVFrame = type { [8 x ptr], [8 x i32], ptr, i32, i32, i32, i32, i32, %struct.AVRational, i64, i64, %struct.AVRational, i32, ptr, i32, i32, [8 x ptr], ptr, i32, ptr, i32, i32, i32, i32, i32, i32, i32, i64, ptr, i32, ptr, ptr, i64, i64, i64, i64, ptr, %struct.AVChannelLayout, i64 }

; Function Attrs: nounwind uwtable
define internal i32 @alloc_out_frame(ptr noundef %0, ptr noundef %1) #1 {
  %3 = alloca i32, align 4
  %4 = alloca ptr, align 8
  %5 = alloca ptr, align 8
  %6 = alloca ptr, align 8
  %7 = alloca i32, align 4
  %8 = alloca i32, align 4
  store ptr %0, ptr %4, align 8, !tbaa !22
  store ptr %1, ptr %5, align 8, !tbaa !51
  %9 = load ptr, ptr %4, align 8, !tbaa !22
  %10 = getelementptr inbounds nuw %struct.ShowWavesContext, ptr %9, i32 0, i32 10
  %11 = load ptr, ptr %10, align 8, !tbaa !110
  %12 = icmp ne ptr %11, null
  br i1 %12, label %73, label %13

13:                                               ; preds = %2
  call void @llvm.lifetime.start.p0(i64 8, ptr %6) #13
  %14 = load ptr, ptr %5, align 8, !tbaa !51
  %15 = load ptr, ptr %5, align 8, !tbaa !51
  %16 = getelementptr inbounds nuw %struct.AVFilterLink, ptr %15, i32 0, i32 6
  %17 = load i32, ptr %16, align 8, !tbaa !54
  %18 = load ptr, ptr %5, align 8, !tbaa !51
  %19 = getelementptr inbounds nuw %struct.AVFilterLink, ptr %18, i32 0, i32 7
  %20 = load i32, ptr %19, align 4, !tbaa !79
  %21 = call ptr @ff_get_video_buffer(ptr noundef %14, i32 noundef %17, i32 noundef %20)
  %22 = load ptr, ptr %4, align 8, !tbaa !22
  %23 = getelementptr inbounds nuw %struct.ShowWavesContext, ptr %22, i32 0, i32 10
  store ptr %21, ptr %23, align 8, !tbaa !110
  store ptr %21, ptr %6, align 8, !tbaa !63
  %24 = load ptr, ptr %6, align 8, !tbaa !63
  %25 = icmp ne ptr %24, null
  br i1 %25, label %27, label %26

26:                                               ; preds = %13
  store i32 -12, ptr %3, align 4
  store i32 1, ptr %7, align 4
  br label %70

27:                                               ; preds = %13
  %28 = load ptr, ptr %5, align 8, !tbaa !51
  %29 = getelementptr inbounds nuw %struct.AVFilterLink, ptr %28, i32 0, i32 6
  %30 = load i32, ptr %29, align 8, !tbaa !54
  %31 = load ptr, ptr %6, align 8, !tbaa !63
  %32 = getelementptr inbounds nuw %struct.AVFrame, ptr %31, i32 0, i32 3
  store i32 %30, ptr %32, align 8, !tbaa !116
  %33 = load ptr, ptr %5, align 8, !tbaa !51
  %34 = getelementptr inbounds nuw %struct.AVFilterLink, ptr %33, i32 0, i32 7
  %35 = load i32, ptr %34, align 4, !tbaa !79
  %36 = load ptr, ptr %6, align 8, !tbaa !63
  %37 = getelementptr inbounds nuw %struct.AVFrame, ptr %36, i32 0, i32 4
  store i32 %35, ptr %37, align 4, !tbaa !117
  call void @llvm.lifetime.start.p0(i64 4, ptr %8) #13
  store i32 0, ptr %8, align 4, !tbaa !49
  br label %38

38:                                               ; preds = %66, %27
  %39 = load i32, ptr %8, align 4, !tbaa !49
  %40 = load ptr, ptr %5, align 8, !tbaa !51
  %41 = getelementptr inbounds nuw %struct.AVFilterLink, ptr %40, i32 0, i32 7
  %42 = load i32, ptr %41, align 4, !tbaa !79
  %43 = icmp slt i32 %39, %42
  br i1 %43, label %45, label %44

44:                                               ; preds = %38
  store i32 2, ptr %7, align 4
  call void @llvm.lifetime.end.p0(i64 4, ptr %8) #13
  br label %69

45:                                               ; preds = %38
  %46 = load ptr, ptr %6, align 8, !tbaa !63
  %47 = getelementptr inbounds nuw %struct.AVFrame, ptr %46, i32 0, i32 0
  %48 = getelementptr inbounds [8 x ptr], ptr %47, i64 0, i64 0
  %49 = load ptr, ptr %48, align 8, !tbaa !69
  %50 = load i32, ptr %8, align 4, !tbaa !49
  %51 = load ptr, ptr %6, align 8, !tbaa !63
  %52 = getelementptr inbounds nuw %struct.AVFrame, ptr %51, i32 0, i32 1
  %53 = getelementptr inbounds [8 x i32], ptr %52, i64 0, i64 0
  %54 = load i32, ptr %53, align 8, !tbaa !49
  %55 = mul nsw i32 %50, %54
  %56 = sext i32 %55 to i64
  %57 = getelementptr inbounds i8, ptr %49, i64 %56
  %58 = load ptr, ptr %5, align 8, !tbaa !51
  %59 = getelementptr inbounds nuw %struct.AVFilterLink, ptr %58, i32 0, i32 6
  %60 = load i32, ptr %59, align 8, !tbaa !54
  %61 = load ptr, ptr %4, align 8, !tbaa !22
  %62 = getelementptr inbounds nuw %struct.ShowWavesContext, ptr %61, i32 0, i32 14
  %63 = load i32, ptr %62, align 8, !tbaa !82
  %64 = mul nsw i32 %60, %63
  %65 = sext i32 %64 to i64
  call void @llvm.memset.p0.i64(ptr align 1 %57, i8 0, i64 %65, i1 false)
  br label %66

66:                                               ; preds = %45
  %67 = load i32, ptr %8, align 4, !tbaa !49
  %68 = add nsw i32 %67, 1
  store i32 %68, ptr %8, align 4, !tbaa !49
  br label %38, !llvm.loop !118

69:                                               ; preds = %44
  store i32 0, ptr %7, align 4
  br label %70

70:                                               ; preds = %69, %26
  call void @llvm.lifetime.end.p0(i64 8, ptr %6) #13
  %71 = load i32, ptr %7, align 4
  switch i32 %71, label %76 [
    i32 0, label %72
    i32 1, label %74
  ]

72:                                               ; preds = %70
  br label %73

73:                                               ; preds = %72, %2
  store i32 0, ptr %3, align 4
  br label %74

74:                                               ; preds = %73, %70
  %75 = load i32, ptr %3, align 4
  ret i32 %75

76:                                               ; preds = %70
  unreachable
}

; Function Attrs: nounwind uwtable
define internal i32 @showwavespic_filter_frame(ptr noundef %0, ptr noundef %1) #1 {
  %3 = alloca i32, align 4
  %4 = alloca ptr, align 8
  %5 = alloca ptr, align 8
  %6 = alloca ptr, align 8
  %7 = alloca ptr, align 8
  %8 = alloca ptr, align 8
  %9 = alloca i32, align 4
  %10 = alloca ptr, align 8
  %11 = alloca i32, align 4
  store ptr %0, ptr %4, align 8, !tbaa !51
  store ptr %1, ptr %5, align 8, !tbaa !63
  call void @llvm.lifetime.start.p0(i64 8, ptr %6) #13
  %12 = load ptr, ptr %4, align 8, !tbaa !51
  %13 = getelementptr inbounds nuw %struct.AVFilterLink, ptr %12, i32 0, i32 2
  %14 = load ptr, ptr %13, align 8, !tbaa !104
  store ptr %14, ptr %6, align 8, !tbaa !4
  call void @llvm.lifetime.start.p0(i64 8, ptr %7) #13
  %15 = load ptr, ptr %6, align 8, !tbaa !4
  %16 = getelementptr inbounds nuw %struct.AVFilterContext, ptr %15, i32 0, i32 7
  %17 = load ptr, ptr %16, align 8, !tbaa !53
  %18 = getelementptr inbounds ptr, ptr %17, i64 0
  %19 = load ptr, ptr %18, align 8, !tbaa !51
  store ptr %19, ptr %7, align 8, !tbaa !51
  call void @llvm.lifetime.start.p0(i64 8, ptr %8) #13
  %20 = load ptr, ptr %6, align 8, !tbaa !4
  %21 = getelementptr inbounds nuw %struct.AVFilterContext, ptr %20, i32 0, i32 9
  %22 = load ptr, ptr %21, align 8, !tbaa !9
  store ptr %22, ptr %8, align 8, !tbaa !22
  call void @llvm.lifetime.start.p0(i64 4, ptr %9) #13
  store i32 0, ptr %9, align 4, !tbaa !49
  %23 = load ptr, ptr %8, align 8, !tbaa !22
  %24 = getelementptr inbounds nuw %struct.ShowWavesContext, ptr %23, i32 0, i32 23
  %25 = load i32, ptr %24, align 8, !tbaa !27
  %26 = icmp ne i32 %25, 0
  br i1 %26, label %27, label %75

27:                                               ; preds = %2
  call void @llvm.lifetime.start.p0(i64 8, ptr %10) #13
  %28 = load ptr, ptr %8, align 8, !tbaa !22
  %29 = load ptr, ptr %7, align 8, !tbaa !51
  %30 = call i32 @alloc_out_frame(ptr noundef %28, ptr noundef %29)
  store i32 %30, ptr %9, align 4, !tbaa !49
  %31 = load i32, ptr %9, align 4, !tbaa !49
  %32 = icmp slt i32 %31, 0
  br i1 %32, label %33, label %34

33:                                               ; preds = %27
  store i32 2, ptr %11, align 4
  br label %73

34:                                               ; preds = %27
  %35 = call noalias ptr @av_malloc(i64 noundef 16)
  store ptr %35, ptr %10, align 8, !tbaa !37
  %36 = load ptr, ptr %10, align 8, !tbaa !37
  %37 = icmp ne ptr %36, null
  br i1 %37, label %39, label %38

38:                                               ; preds = %34
  store i32 -12, ptr %9, align 4, !tbaa !49
  store i32 2, ptr %11, align 4
  br label %73

39:                                               ; preds = %34
  %40 = load ptr, ptr %5, align 8, !tbaa !63
  %41 = load ptr, ptr %10, align 8, !tbaa !37
  %42 = getelementptr inbounds nuw %struct.frame_node, ptr %41, i32 0, i32 0
  store ptr %40, ptr %42, align 8, !tbaa !121
  %43 = load ptr, ptr %10, align 8, !tbaa !37
  %44 = getelementptr inbounds nuw %struct.frame_node, ptr %43, i32 0, i32 1
  store ptr null, ptr %44, align 8, !tbaa !38
  %45 = load ptr, ptr %8, align 8, !tbaa !22
  %46 = getelementptr inbounds nuw %struct.ShowWavesContext, ptr %45, i32 0, i32 25
  %47 = load ptr, ptr %46, align 8, !tbaa !42
  %48 = icmp ne ptr %47, null
  br i1 %48, label %55, label %49

49:                                               ; preds = %39
  %50 = load ptr, ptr %10, align 8, !tbaa !37
  %51 = load ptr, ptr %8, align 8, !tbaa !22
  %52 = getelementptr inbounds nuw %struct.ShowWavesContext, ptr %51, i32 0, i32 25
  store ptr %50, ptr %52, align 8, !tbaa !42
  %53 = load ptr, ptr %8, align 8, !tbaa !22
  %54 = getelementptr inbounds nuw %struct.ShowWavesContext, ptr %53, i32 0, i32 24
  store ptr %50, ptr %54, align 8, !tbaa !36
  br label %64

55:                                               ; preds = %39
  %56 = load ptr, ptr %10, align 8, !tbaa !37
  %57 = load ptr, ptr %8, align 8, !tbaa !22
  %58 = getelementptr inbounds nuw %struct.ShowWavesContext, ptr %57, i32 0, i32 25
  %59 = load ptr, ptr %58, align 8, !tbaa !42
  %60 = getelementptr inbounds nuw %struct.frame_node, ptr %59, i32 0, i32 1
  store ptr %56, ptr %60, align 8, !tbaa !38
  %61 = load ptr, ptr %10, align 8, !tbaa !37
  %62 = load ptr, ptr %8, align 8, !tbaa !22
  %63 = getelementptr inbounds nuw %struct.ShowWavesContext, ptr %62, i32 0, i32 25
  store ptr %61, ptr %63, align 8, !tbaa !42
  br label %64

64:                                               ; preds = %55, %49
  %65 = load ptr, ptr %5, align 8, !tbaa !63
  %66 = getelementptr inbounds nuw %struct.AVFrame, ptr %65, i32 0, i32 5
  %67 = load i32, ptr %66, align 8, !tbaa !105
  %68 = sext i32 %67 to i64
  %69 = load ptr, ptr %8, align 8, !tbaa !22
  %70 = getelementptr inbounds nuw %struct.ShowWavesContext, ptr %69, i32 0, i32 26
  %71 = load i64, ptr %70, align 8, !tbaa !122
  %72 = add nsw i64 %71, %68
  store i64 %72, ptr %70, align 8, !tbaa !122
  store i32 0, ptr %3, align 4
  store i32 1, ptr %11, align 4
  br label %73

73:                                               ; preds = %38, %33, %64
  call void @llvm.lifetime.end.p0(i64 8, ptr %10) #13
  %74 = load i32, ptr %11, align 4
  switch i32 %74, label %78 [
    i32 2, label %76
  ]

75:                                               ; preds = %2
  br label %76

76:                                               ; preds = %75, %73
  call void @av_frame_free(ptr noundef %5)
  %77 = load i32, ptr %9, align 4, !tbaa !49
  store i32 %77, ptr %3, align 4
  store i32 1, ptr %11, align 4
  br label %78

78:                                               ; preds = %76, %73
  call void @llvm.lifetime.end.p0(i64 4, ptr %9) #13
  call void @llvm.lifetime.end.p0(i64 8, ptr %8) #13
  call void @llvm.lifetime.end.p0(i64 8, ptr %7) #13
  call void @llvm.lifetime.end.p0(i64 8, ptr %6) #13
  %79 = load i32, ptr %3, align 4
  ret i32 %79
}