; Function Attrs: nounwind uwtable
define internal range(i32 -12, 1) i32 @showwavespic_filter_frame(ptr noundef readonly captures(none) %0, ptr noundef %1) #2 {
  %3 = alloca ptr, align 8
  store ptr %1, ptr %3, align 8, !tbaa !53
  %4 = getelementptr inbounds nuw i8, ptr %0, i64 16
  %5 = load ptr, ptr %4, align 8, !tbaa !54
  %6 = getelementptr inbounds nuw i8, ptr %5, i64 72
  %7 = load ptr, ptr %6, align 8, !tbaa !22
  %8 = getelementptr inbounds nuw i8, ptr %7, i64 144
  %9 = load i32, ptr %8, align 8, !tbaa !23
  %.not = icmp eq i32 %9, 0
  br i1 %.not, label %alloc_out_frame.exit.thread32, label %10

10:                                               ; preds = %2
  %11 = getelementptr inbounds nuw i8, ptr %7, i64 64
  %12 = load ptr, ptr %11, align 8, !tbaa !72
  %.not.i = icmp eq ptr %12, null
  br i1 %.not.i, label %13, label %.loopexit

13:                                               ; preds = %10
  %14 = getelementptr inbounds nuw i8, ptr %5, i64 56
  %15 = load ptr, ptr %14, align 8, !tbaa !44
  %16 = load ptr, ptr %15, align 8, !tbaa !42
  %17 = getelementptr inbounds nuw i8, ptr %16, i64 40
  %18 = load i32, ptr %17, align 8, !tbaa !45
  %19 = getelementptr inbounds nuw i8, ptr %16, i64 44
  %20 = load i32, ptr %19, align 4, !tbaa !65
  %21 = tail call ptr @ff_get_video_buffer(ptr noundef %16, i32 noundef %18, i32 noundef %20) #17
  store ptr %21, ptr %11, align 8, !tbaa !72
  %.not22.i = icmp eq ptr %21, null
  br i1 %.not22.i, label %alloc_out_frame.exit.thread32, label %22

22:                                               ; preds = %13
  %23 = load i32, ptr %17, align 8, !tbaa !45
  %24 = getelementptr inbounds nuw i8, ptr %21, i64 104
  store i32 %23, ptr %24, align 8, !tbaa !73
  %25 = load i32, ptr %19, align 4, !tbaa !65
  %26 = getelementptr inbounds nuw i8, ptr %21, i64 108
  store i32 %25, ptr %26, align 4, !tbaa !74
  %27 = icmp sgt i32 %25, 0
  br i1 %27, label %.lr.ph.i, label %.loopexit

.lr.ph.i:                                         ; preds = %22
  %28 = getelementptr inbounds nuw i8, ptr %21, i64 64
  %29 = getelementptr inbounds nuw i8, ptr %7, i64 96
  br label %30

30:                                               ; preds = %30, %.lr.ph.i
  %.024.i = phi i32 [ 0, %.lr.ph.i ], [ %40, %30 ]
  %31 = load ptr, ptr %21, align 8, !tbaa !61
  %32 = load i32, ptr %28, align 8, !tbaa !75
  %33 = mul nsw i32 %32, %.024.i
  %34 = sext i32 %33 to i64
  %35 = getelementptr inbounds i8, ptr %31, i64 %34
  %36 = load i32, ptr %17, align 8, !tbaa !45
  %37 = load i32, ptr %29, align 8, !tbaa !63
  %38 = mul nsw i32 %37, %36
  %39 = sext i32 %38 to i64
  tail call void @llvm.memset.p0.i64(ptr align 1 %35, i8 0, i64 %39, i1 false)
  %40 = add nuw nsw i32 %.024.i, 1
  %41 = load i32, ptr %19, align 4, !tbaa !65
  %42 = icmp slt i32 %40, %41
  br i1 %42, label %30, label %.loopexit, !llvm.loop !76

.loopexit:                                        ; preds = %30, %10, %22
  %43 = tail call noalias ptr @av_malloc(i64 noundef 16) #17
  %.not28 = icmp eq ptr %43, null
  br i1 %.not28, label %alloc_out_frame.exit.thread32, label %44

44:                                               ; preds = %.loopexit
  store ptr %1, ptr %43, align 8, !tbaa !108
  %45 = getelementptr inbounds nuw i8, ptr %43, i64 8
  store ptr null, ptr %45, align 8, !tbaa !34
  %46 = getelementptr inbounds nuw i8, ptr %7, i64 160
  %47 = load ptr, ptr %46, align 8, !tbaa !38
  %.not29 = icmp eq ptr %47, null
  br i1 %.not29, label %48, label %50

48:                                               ; preds = %44
  %49 = getelementptr inbounds nuw i8, ptr %7, i64 152
  store ptr %43, ptr %49, align 8, !tbaa !32
  br label %alloc_out_frame.exit

50:                                               ; preds = %44
  %51 = getelementptr inbounds nuw i8, ptr %47, i64 8
  store ptr %43, ptr %51, align 8, !tbaa !34
  br label %alloc_out_frame.exit

alloc_out_frame.exit:                             ; preds = %48, %50
  store ptr %43, ptr %46, align 8, !tbaa !38
  %52 = getelementptr inbounds nuw i8, ptr %1, i64 112
  %53 = load i32, ptr %52, align 8, !tbaa !56
  %54 = sext i32 %53 to i64
  %55 = getelementptr inbounds nuw i8, ptr %7, i64 168
  %56 = load i64, ptr %55, align 8, !tbaa !109
  %57 = add nsw i64 %56, %54
  store i64 %57, ptr %55, align 8, !tbaa !109
  br label %58

alloc_out_frame.exit.thread32:                    ; preds = %13, %.loopexit, %2
  %.123 = phi i32 [ 0, %2 ], [ -12, %.loopexit ], [ -12, %13 ]
  call void @av_frame_free(ptr noundef nonnull %3) #17
  br label %58

58:                                               ; preds = %alloc_out_frame.exit, %alloc_out_frame.exit.thread32
  %.1 = phi i32 [ %.123, %alloc_out_frame.exit.thread32 ], [ 0, %alloc_out_frame.exit ]
  ret i32 %.1
}